target datalayout = "e-m:e-p270:32:32-p271:32:32-p272:64:64-i64:64-i128:128-f80:128-n8:16:32:64-S128"
target triple = "x86_64-pc-linux-gnu"

%"class.Luau::Allocator" = type { ptr, i64 }
%"struct.Luau::Allocator::Page" = type { ptr, [8192 x i8] }

; Function Attrs: mustprogress uwtable
define dso_local noundef ptr @_ZN4Luau9Allocator8allocateEm(ptr noundef nonnull align 8 dereferenceable(16) %0, i64 noundef %1) #2 align 2 {
  %3 = alloca ptr, align 8
  %4 = alloca ptr, align 8
  %5 = alloca i64, align 8
  %6 = alloca i64, align 8
  %7 = alloca i64, align 8
  %8 = alloca i64, align 8
  %9 = alloca i32, align 4
  %10 = alloca i64, align 8
  %11 = alloca ptr, align 8
  %12 = alloca ptr, align 8
  store ptr %0, ptr %4, align 8, !tbaa !8
  store i64 %1, ptr %5, align 8, !tbaa !21
  %13 = load ptr, ptr %4, align 8
  call void @llvm.lifetime.start.p0(i64 8, ptr %6) #7
  store i64 8, ptr %6, align 8, !tbaa !21
  %14 = getelementptr inbounds nuw %"class.Luau::Allocator", ptr %13, i32 0, i32 0
  %15 = load ptr, ptr %14, align 8, !tbaa !11
  %16 = icmp ne ptr %15, null
  br i1 %16, label %17, label %49

17:                                               ; preds = %2
  call void @llvm.lifetime.start.p0(i64 8, ptr %7) #7
  %18 = getelementptr inbounds nuw %"class.Luau::Allocator", ptr %13, i32 0, i32 0
  %19 = load ptr, ptr %18, align 8, !tbaa !11
  %20 = getelementptr inbounds nuw %"struct.Luau::Allocator::Page", ptr %19, i32 0, i32 1
  %21 = getelementptr inbounds [8192 x i8], ptr %20, i64 0, i64 0
  %22 = ptrtoint ptr %21 to i64
  store i64 %22, ptr %7, align 8, !tbaa !21
  call void @llvm.lifetime.start.p0(i64 8, ptr %8) #7
  %23 = load i64, ptr %7, align 8, !tbaa !21
  %24 = getelementptr inbounds nuw %"class.Luau::Allocator", ptr %13, i32 0, i32 1
  %25 = load i64, ptr %24, align 8, !tbaa !15
  %26 = add i64 %23, %25
  %27 = add i64 %26, 8
  %28 = sub i64 %27, 1
  %29 = and i64 %28, -8
  store i64 %29, ptr %8, align 8, !tbaa !21
  %30 = load i64, ptr %8, align 8, !tbaa !21
  %31 = load i64, ptr %5, align 8, !tbaa !21
  %32 = add i64 %30, %31
  %33 = load i64, ptr %7, align 8, !tbaa !21
  %34 = add i64 %33, 8192
  %35 = icmp ule i64 %32, %34
  br i1 %35, label %36, label %45

36:                                               ; preds = %17
  %37 = load i64, ptr %8, align 8, !tbaa !21
  %38 = load i64, ptr %7, align 8, !tbaa !21
  %39 = sub i64 %37, %38
  %40 = load i64, ptr %5, align 8, !tbaa !21
  %41 = add i64 %39, %40
  %42 = getelementptr inbounds nuw %"class.Luau::Allocator", ptr %13, i32 0, i32 1
  store i64 %41, ptr %42, align 8, !tbaa !15
  %43 = load i64, ptr %8, align 8, !tbaa !21
  %44 = inttoptr i64 %43 to ptr
  store ptr %44, ptr %3, align 8
  store i32 1, ptr %9, align 4
  br label %46

45:                                               ; preds = %17
  store i32 0, ptr %9, align 4
  br label %46

46:                                               ; preds = %45, %36
  call void @llvm.lifetime.end.p0(i64 8, ptr %8) #7
  call void @llvm.lifetime.end.p0(i64 8, ptr %7) #7
  %47 = load i32, ptr %9, align 4
  switch i32 %47, label %72 [
    i32 0, label %48
  ]

48:                                               ; preds = %46
  br label %49

49:                                               ; preds = %48, %2
  call void @llvm.lifetime.start.p0(i64 8, ptr %10) #7
  %50 = load i64, ptr %5, align 8, !tbaa !21
  %51 = icmp ugt i64 %50, 8192
  br i1 %51, label %52, label %54

52:                                               ; preds = %49
  %53 = load i64, ptr %5, align 8, !tbaa !21
  br label %55

54:                                               ; preds = %49
  br label %55

55:                                               ; preds = %54, %52
  %56 = phi i64 [ %53, %52 ], [ 8192, %54 ]
  store i64 %56, ptr %10, align 8, !tbaa !21
  call void @llvm.lifetime.start.p0(i64 8, ptr %11) #7
  %57 = load i64, ptr %10, align 8, !tbaa !21
  %58 = add i64 8, %57
  %59 = call noalias noundef nonnull ptr @_Znwm(i64 noundef %58) #6
  store ptr %59, ptr %11, align 8, !tbaa !22
  call void @llvm.lifetime.start.p0(i64 8, ptr %12) #7
  %60 = load ptr, ptr %11, align 8, !tbaa !22
  store ptr %60, ptr %12, align 8, !tbaa !18
  %61 = getelementptr inbounds nuw %"class.Luau::Allocator", ptr %13, i32 0, i32 0
  %62 = load ptr, ptr %61, align 8, !tbaa !11
  %63 = load ptr, ptr %12, align 8, !tbaa !18
  %64 = getelementptr inbounds nuw %"struct.Luau::Allocator::Page", ptr %63, i32 0, i32 0
  store ptr %62, ptr %64, align 8, !tbaa !16
  %65 = load ptr, ptr %12, align 8, !tbaa !18
  %66 = getelementptr inbounds nuw %"class.Luau::Allocator", ptr %13, i32 0, i32 0
  store ptr %65, ptr %66, align 8, !tbaa !11
  %67 = load i64, ptr %5, align 8, !tbaa !21
  %68 = getelementptr inbounds nuw %"class.Luau::Allocator", ptr %13, i32 0, i32 1
  store i64 %67, ptr %68, align 8, !tbaa !15
  %69 = load ptr, ptr %12, align 8, !tbaa !18
  %70 = getelementptr inbounds nuw %"struct.Luau::Allocator::Page", ptr %69, i32 0, i32 1
  %71 = getelementptr inbounds [8192 x i8], ptr %70, i64 0, i64 0
  store ptr %71, ptr %3, align 8
  store i32 1, ptr %9, align 4
  call void @llvm.lifetime.end.p0(i64 8, ptr %12) #7
  call void @llvm.lifetime.end.p0(i64 8, ptr %11) #7
  call void @llvm.lifetime.end.p0(i64 8, ptr %10) #7
  br label %72

72:                                               ; preds = %55, %46
  call void @llvm.lifetime.end.p0(i64 8, ptr %6) #7
  %73 = load ptr, ptr %3, align 8
  ret ptr %73
}