; Function Attrs: mustprogress uwtable
define dso_local noundef ptr @_ZN4Luau9Allocator8allocateEm(ptr noundef nonnull align 8 captures(none) dereferenceable(16) %0, i64 noundef %1) local_unnamed_addr #2 align 2 {
  %3 = load ptr, ptr %0, align 8, !tbaa !8
  %.not = icmp eq ptr %3, null
  br i1 %.not, label %.thread, label %4

4:                                                ; preds = %2
  %5 = getelementptr inbounds nuw i8, ptr %3, i64 8
  %6 = ptrtoint ptr %5 to i64
  %7 = getelementptr inbounds nuw i8, ptr %0, i64 8
  %8 = load i64, ptr %7, align 8, !tbaa !13
  %9 = add i64 %6, 7
  %10 = add i64 %9, %8
  %11 = and i64 %10, -8
  %12 = add i64 %11, %1
  %13 = add i64 %6, 8192
  %.not20 = icmp ugt i64 %12, %13
  br i1 %.not20, label %.thread, label %14

14:                                               ; preds = %4
  %15 = sub i64 %1, %6
  %16 = add i64 %15, %11
  store i64 %16, ptr %7, align 8, !tbaa !13
  %17 = inttoptr i64 %11 to ptr
  br label %24

.thread:                                          ; preds = %4, %2
  %18 = tail call i64 @llvm.umax.i64(i64 %1, i64 8192)
  %19 = add i64 %18, 8
  %20 = tail call noalias noundef nonnull ptr @_Znwm(i64 noundef %19) #9
  %21 = load ptr, ptr %0, align 8, !tbaa !8
  store ptr %21, ptr %20, align 8, !tbaa !14
  store ptr %20, ptr %0, align 8, !tbaa !8
  %22 = getelementptr inbounds nuw i8, ptr %0, i64 8
  store i64 %1, ptr %22, align 8, !tbaa !13
  %23 = getelementptr inbounds nuw i8, ptr %20, i64 8
  br label %24

24:                                               ; preds = %14, %.thread
  %.1 = phi ptr [ %23, %.thread ], [ %17, %14 ]
  ret ptr %.1
}